; Function Attrs: nofree nounwind uwtable
define range(i32 -1, -2147483648) i32 @tjPlaneWidth(i32 noundef %0, i32 noundef %1, i32 noundef %2) local_unnamed_addr #6 {
  %4 = icmp slt i32 %1, 1
  %5 = icmp ugt i32 %2, 6
  %or.cond3.i = or i1 %4, %5
  %6 = icmp slt i32 %0, 0
  %or.cond.i = or i1 %6, %or.cond3.i
  br i1 %or.cond.i, label %tj3YUVPlaneWidth.exit.thread, label %7

7:                                                ; preds = %3
  %8 = icmp eq i32 %2, 3
  %9 = select i1 %8, i32 1, i32 3
  %.not.i = icmp ugt i32 %9, %0
  br i1 %.not.i, label %10, label %tj3YUVPlaneWidth.exit.thread

10:                                               ; preds = %7
  %11 = zext nneg i32 %1 to i64
  %12 = zext nneg i32 %2 to i64
  %13 = getelementptr inbounds [7 x i32], ptr @tjMCUWidth, i64 0, i64 %12
  %14 = load i32, ptr %13, align 4
  %15 = sdiv i32 %14, 8
  %16 = sext i32 %15 to i64
  %17 = add nsw i64 %11, -1
  %18 = add nsw i64 %17, %16
  %19 = sub nsw i32 0, %15
  %20 = sext i32 %19 to i64
  %21 = and i64 %18, %20
  %22 = icmp eq i32 %0, 0
  br i1 %22, label %27, label %23

23:                                               ; preds = %10
  %24 = shl nsw i64 %21, 3
  %25 = sext i32 %14 to i64
  %26 = udiv i64 %24, %25
  br label %27

27:                                               ; preds = %23, %10
  %.0.i = phi i64 [ %26, %23 ], [ %21, %10 ]
  %.0.i.fr = freeze i64 %.0.i
  %28 = icmp ugt i64 %.0.i.fr, 2147483647
  br i1 %28, label %tj3YUVPlaneWidth.exit.thread, label %tj3YUVPlaneWidth.exit

tj3YUVPlaneWidth.exit.thread:                     ; preds = %3, %7, %27
  %.str.30.sink.i = phi ptr [ @.str.1, %3 ], [ @.str.1, %7 ], [ @.str.30, %27 ]
  %29 = tail call align 16 ptr @llvm.threadlocal.address.p0(ptr align 16 @errStr)
  %30 = tail call i32 (ptr, i64, ptr, ...) @snprintf(ptr noundef nonnull dereferenceable(1) %29, i64 noundef 200, ptr noundef nonnull @.str, ptr noundef nonnull @tj3YUVPlaneWidth.FUNCTION_NAME, ptr noundef nonnull %.str.30.sink.i) #26
  br label %33

tj3YUVPlaneWidth.exit:                            ; preds = %27
  %31 = trunc nuw nsw i64 %.0.i.fr to i32
  %32 = icmp eq i64 %.0.i.fr, 0
  br i1 %32, label %33, label %34

33:                                               ; preds = %tj3YUVPlaneWidth.exit.thread, %tj3YUVPlaneWidth.exit
  br label %34

34:                                               ; preds = %tj3YUVPlaneWidth.exit, %33
  %35 = phi i32 [ -1, %33 ], [ %31, %tj3YUVPlaneWidth.exit ]
  ret i32 %35
}